(dp0
S'reccard_window_2'
p1
(dp2
S'position'
p3
(I0
I0
tp4
sS'window_size'
p5
(I1299
I748
tp6
ssS'reccard_window_3'
p7
(dp8
S'position'
p9
(I0
I0
tp10
sS'window_size'
p11
(I1246
I814
tp12
ssS'reccard_window_1'
p13
(dp14
S'position'
p15
(I0
I0
tp16
sS'window_size'
p17
(I700
I600
tp18
ssS'reccard_window_7'
p19
(dp20
S'position'
p21
(I0
I0
tp22
sS'window_size'
p23
(I700
I600
tp24
ssS'reccard_window_4'
p25
(dp26
S'position'
p27
(I0
I0
tp28
sS'window_size'
p29
(I999
I891
tp30
ssS'reccard_window_5'
p31
(dp32
S'position'
p33
(I0
I0
tp34
sS'window_size'
p35
(I700
I600
tp36
ssS'recipes_per_page'
p37
F30.0
sS'shopGuiWin'
p38
(dp39
sS'reccard_window_70'
p40
(dp41
S'position'
p42
(I0
I0
tp43
sS'window_size'
p44
(I700
I600
tp45
ssS'reccard_window_65'
p46
(dp47
S'position'
p48
(I0
I0
tp49
sS'window_size'
p50
(I700
I600
tp51
ssS'reccard_window_25'
p52
(dp53
S'position'
p54
(I0
I0
tp55
sS'window_size'
p56
(I1465
I958
tp57
ssS'reccard_window_68'
p58
(dp59
g42
(I0
I0
tp60
sg44
(I700
I600
tp61
ssS'reccard_window_27'
p62
(dp63
S'position'
p64
(I0
I0
tp65
sS'window_size'
p66
(I700
I600
tp67
ssS'rectree_hidden_columns'
p68
(lp69
S'Website'
p70
aS'Yield'
p71
aS'Yield Unit'
p72
aS'Preparation Time'
p73
aS'Cooking Time'
p74
asS'reccard_window_29'
p75
(dp76
g64
(I0
I0
tp77
sg66
(I700
I600
tp78
ssS'reccard_window_28'
p79
(dp80
g64
(I0
I0
tp81
sg66
(I700
I600
tp82
ssS'reccard_window_67'
p83
(dp84
g42
(I0
I0
tp85
sg44
(I700
I600
tp86
ssS'reccard_window_66'
p87
(dp88
g48
(I0
I0
tp89
sg50
(I700
I600
tp90
ssS'reccard_window_61'
p91
(dp92
g48
(I0
I0
tp93
sg50
(I700
I600
tp94
ssS'reccard_window_60'
p95
(dp96
g48
(I0
I0
tp97
sg50
(I700
I600
tp98
ssS'shopvpaned1'
p99
(dp100
S'position'
p101
I150
ssS'reccard_window_62'
p102
(dp103
g48
(I0
I0
tp104
sg50
(I1244
I743
tp105
ssS'reccard_window_56'
p106
(dp107
g48
(I0
I0
tp108
sg50
(I700
I600
tp109
ssS'reccard_window_57'
p110
(dp111
g48
(I0
I0
tp112
sg50
(I700
I600
tp113
ssS'reccard_window_185'
p114
(dp115
S'position'
p116
(I0
I0
tp117
sS'window_size'
p118
(I700
I600
tp119
ssS'reccard_window_51'
p120
(dp121
S'position'
p122
(I0
I0
tp123
sS'window_size'
p124
(I700
I600
tp125
ssS'reccard_window_53'
p126
(dp127
g122
(I0
I0
tp128
sg124
(I1409
I941
tp129
ssS'shophpaned1'
p130
(dp131
g101
I400
ssS'reccard_window_58'
p132
(dp133
g48
(I0
I0
tp134
sg50
(I700
I600
tp135
ssS'reccard_window_59'
p136
(dp137
g48
(I0
I0
tp138
sg50
(I700
I600
tp139
ssS'regexpTog'
p140
(dp141
S'active'
p142
I00
ssS'nutrition_to_highlight'
p143
S'kcal'
p144
sS'reccard_window_113'
p145
(dp146
S'position'
p147
(I0
I0
tp148
sS'window_size'
p149
(I1149
I722
tp150
ssS'reccard_window_92'
p151
(dp152
S'position'
p153
(I0
I0
tp154
sS'window_size'
p155
(I1418
I888
tp156
ssS'reccard_window_94'
p157
(dp158
g153
(I0
I0
tp159
sg155
(I1470
I694
tp160
ssS'reccard_window_63'
p161
(dp162
g48
(I0
I0
tp163
sg50
(I700
I600
tp164
ssS'reccard_window_98'
p165
(dp166
g153
(I0
I0
tp167
sg155
(I1210
I785
tp168
ssS'reccard_window_100'
p169
(dp170
S'position'
p171
(I0
I0
tp172
sS'window_size'
p173
(I1227
I836
tp174
ssS'reccard_window_79'
p175
(dp176
S'position'
p177
(I0
I0
tp178
sS'window_size'
p179
(I700
I600
tp180
ssS'reccard_window_102'
p181
(dp182
g147
(I0
I0
tp183
sg149
(I1000
I733
tp184
ssS'reccard_window_95'
p185
(dp186
g153
(I0
I0
tp187
sg155
(I700
I600
tp188
ssS'reccard_window_179'
p189
(dp190
g116
(I0
I0
tp191
sg118
(I700
I600
tp192
ssS'reccard_window_186'
p193
(dp194
g116
(I0
I0
tp195
sg118
(I700
I600
tp196
ssS'rectree_column_order'
p197
(dp198
sS'rec_editor_window'
p199
(dp200
S'position'
p201
(I0
I0
tp202
sS'window_size'
p203
(I1328
I600
tp204
ssS'reccard_window_33'
p205
(dp206
S'position'
p207
(I586
I65
tp208
sS'window_size'
p209
(I1134
I935
tp210
ssS'reccard_window_30'
p211
(dp212
g64
(I0
I0
tp213
sg66
(I700
I600
tp214
ssS'reccard_window_36'
p215
(dp216
g207
(I0
I0
tp217
sg209
(I700
I600
tp218
ssS'reccard_window_37'
p219
(dp220
g207
(I0
I0
tp221
sg209
(I700
I600
tp222
ssS'reccard_window_34'
p223
(dp224
g207
(I0
I0
tp225
sg209
(I700
I600
tp226
ssS'reccard_window_35'
p227
(dp228
g207
(I0
I0
tp229
sg209
(I700
I600
tp230
ssS'reccard_window_11'
p231
(dp232
g21
(I0
I0
tp233
sg23
(I700
I600
tp234
ssS'reccard_window_38'
p235
(dp236
g207
(I0
I0
tp237
sg209
(I700
I600
tp238
ssS'reccard_window_13'
p239
(dp240
S'position'
p241
(I0
I0
tp242
sS'window_size'
p243
(I700
I600
tp244
ssS'reccard_window_72'
p245
(dp246
g177
(I0
I0
tp247
sg179
(I700
I600
tp248
ssS'nutritionDruid'
p249
(dp250
g15
(I0
I0
tp251
sg17
(I717
I650
tp252
ssS'reccard_window_71'
p253
(dp254
g42
(I0
I0
tp255
sg44
(I700
I600
tp256
ssS'reccard_window_41'
p257
(dp258
g207
(I0
I0
tp259
sg209
(I700
I600
tp260
ssS'reccard_window_40'
p261
(dp262
g207
(I0
I0
tp263
sg209
(I700
I600
tp264
ssS'reccard_window_64'
p265
(dp266
g48
(I0
I0
tp267
sg50
(I700
I600
tp268
ssS'reccard_window_39'
p269
(dp270
g207
(I0
I0
tp271
sg209
(I700
I600
tp272
ssS'reccard_window_84'
p273
(dp274
g177
(I0
I0
tp275
sg179
(I700
I600
tp276
ssS'readableUnits'
p277
I01
sS'useFractions'
p278
I01
sS'sautTog'
p279
(dp280
g142
I01
ssS'reccard_window_118'
p281
(dp282
S'position'
p283
(I0
I0
tp284
sS'window_size'
p285
(I1214
I785
tp286
ssS'reccard_window_69'
p287
(dp288
g42
(I0
I0
tp289
sg44
(I700
I600
tp290
ssS'app_window'
p291
(dp292
g101
(I65
I52
tp293
sS'window_size'
p294
(I928
I965
tp295
ss.