(dp0
S'reccard_window_2'
p1
(dp2
S'position'
p3
(I0
I0
tp4
sS'window_size'
p5
(I1299
I748
tp6
ssS'reccard_window_3'
p7
(dp8
S'position'
p9
(I0
I0
tp10
sS'window_size'
p11
(I1246
I814
tp12
ssS'reccard_window_1'
p13
(dp14
S'position'
p15
(I0
I0
tp16
sS'window_size'
p17
(I700
I600
tp18
ssS'reccard_window_7'
p19
(dp20
S'position'
p21
(I0
I0
tp22
sS'window_size'
p23
(I700
I600
tp24
ssS'reccard_window_4'
p25
(dp26
S'position'
p27
(I0
I0
tp28
sS'window_size'
p29
(I999
I891
tp30
ssS'reccard_window_5'
p31
(dp32
S'position'
p33
(I0
I0
tp34
sS'window_size'
p35
(I700
I600
tp36
ssS'recipes_per_page'
p37
F30.0
sS'shopGuiWin'
p38
(dp39
sS'reccard_window_70'
p40
(dp41
S'position'
p42
(I0
I0
tp43
sS'window_size'
p44
(I700
I600
tp45
ssS'reccard_window_65'
p46
(dp47
S'position'
p48
(I0
I0
tp49
sS'window_size'
p50
(I700
I600
tp51
ssS'reccard_window_25'
p52
(dp53
S'position'
p54
(I0
I0
tp55
sS'window_size'
p56
(I1465
I958
tp57
ssS'reccard_window_68'
p58
(dp59
g42
(I0
I0
tp60
sg44
(I700
I600
tp61
ssS'reccard_window_27'
p62
(dp63
S'position'
p64
(I0
I0
tp65
sS'window_size'
p66
(I700
I600
tp67
ssS'rectree_hidden_columns'
p68
(lp69
S'Website'
p70
aS'Yield'
p71
aS'Yield Unit'
p72
aS'Preparation Time'
p73
aS'Cooking Time'
p74
asS'reccard_window_29'
p75
(dp76
g64
(I0
I0
tp77
sg66
(I700
I600
tp78
ssS'reccard_window_28'
p79
(dp80
g64
(I0
I0
tp81
sg66
(I700
I600
tp82
ssS'reccard_window_67'
p83
(dp84
g42
(I0
I0
tp85
sg44
(I700
I600
tp86
ssS'reccard_window_66'
p87
(dp88
g48
(I0
I0
tp89
sg50
(I700
I600
tp90
ssS'reccard_window_61'
p91
(dp92
g48
(I0
I0
tp93
sg50
(I700
I600
tp94
ssS'reccard_window_60'
p95
(dp96
g48
(I0
I0
tp97
sg50
(I700
I600
tp98
ssS'shopvpaned1'
p99
(dp100
S'position'
p101
I150
ssS'reccard_window_62'
p102
(dp103
g48
(I0
I0
tp104
sg50
(I1244
I743
tp105
ssS'reccard_window_56'
p106
(dp107
g48
(I0
I0
tp108
sg50
(I700
I600
tp109
ssS'reccard_window_57'
p110
(dp111
g48
(I0
I0
tp112
sg50
(I700
I600
tp113
ssS'reccard_window_51'
p114
(dp115
S'position'
p116
(I0
I0
tp117
sS'window_size'
p118
(I700
I600
tp119
ssS'reccard_window_53'
p120
(dp121
g116
(I0
I0
tp122
sg118
(I1409
I941
tp123
ssS'shophpaned1'
p124
(dp125
g101
I400
ssS'reccard_window_58'
p126
(dp127
g48
(I0
I0
tp128
sg50
(I700
I600
tp129
ssS'reccard_window_59'
p130
(dp131
g48
(I0
I0
tp132
sg50
(I700
I600
tp133
ssS'regexpTog'
p134
(dp135
S'active'
p136
I00
ssS'nutrition_to_highlight'
p137
S'kcal'
p138
sS'reccard_window_113'
p139
(dp140
S'position'
p141
(I0
I0
tp142
sS'window_size'
p143
(I1149
I722
tp144
ssS'reccard_window_92'
p145
(dp146
S'position'
p147
(I0
I0
tp148
sS'window_size'
p149
(I1418
I888
tp150
ssS'reccard_window_94'
p151
(dp152
g147
(I0
I0
tp153
sg149
(I1470
I694
tp154
ssS'reccard_window_63'
p155
(dp156
g48
(I0
I0
tp157
sg50
(I700
I600
tp158
ssS'reccard_window_98'
p159
(dp160
g147
(I0
I0
tp161
sg149
(I1210
I785
tp162
ssS'reccard_window_100'
p163
(dp164
S'position'
p165
(I0
I0
tp166
sS'window_size'
p167
(I1227
I836
tp168
ssS'reccard_window_79'
p169
(dp170
S'position'
p171
(I0
I0
tp172
sS'window_size'
p173
(I700
I600
tp174
ssS'reccard_window_102'
p175
(dp176
g141
(I0
I0
tp177
sg143
(I1000
I733
tp178
ssS'reccard_window_95'
p179
(dp180
g147
(I0
I0
tp181
sg149
(I700
I600
tp182
ssS'rectree_column_order'
p183
(dp184
sS'rec_editor_window'
p185
(dp186
S'position'
p187
(I0
I0
tp188
sS'window_size'
p189
(I1328
I600
tp190
ssS'reccard_window_33'
p191
(dp192
S'position'
p193
(I586
I65
tp194
sS'window_size'
p195
(I1134
I935
tp196
ssS'reccard_window_30'
p197
(dp198
g64
(I0
I0
tp199
sg66
(I700
I600
tp200
ssS'reccard_window_36'
p201
(dp202
g193
(I0
I0
tp203
sg195
(I700
I600
tp204
ssS'reccard_window_37'
p205
(dp206
g193
(I0
I0
tp207
sg195
(I700
I600
tp208
ssS'reccard_window_34'
p209
(dp210
g193
(I0
I0
tp211
sg195
(I700
I600
tp212
ssS'reccard_window_35'
p213
(dp214
g193
(I0
I0
tp215
sg195
(I700
I600
tp216
ssS'reccard_window_11'
p217
(dp218
g21
(I0
I0
tp219
sg23
(I700
I600
tp220
ssS'reccard_window_38'
p221
(dp222
g193
(I0
I0
tp223
sg195
(I700
I600
tp224
ssS'reccard_window_13'
p225
(dp226
S'position'
p227
(I0
I0
tp228
sS'window_size'
p229
(I700
I600
tp230
ssS'reccard_window_72'
p231
(dp232
g171
(I0
I0
tp233
sg173
(I700
I600
tp234
ssS'nutritionDruid'
p235
(dp236
g15
(I0
I0
tp237
sg17
(I717
I650
tp238
ssS'reccard_window_71'
p239
(dp240
g42
(I0
I0
tp241
sg44
(I700
I600
tp242
ssS'reccard_window_41'
p243
(dp244
g193
(I0
I0
tp245
sg195
(I700
I600
tp246
ssS'reccard_window_40'
p247
(dp248
g193
(I0
I0
tp249
sg195
(I700
I600
tp250
ssS'reccard_window_64'
p251
(dp252
g48
(I0
I0
tp253
sg50
(I700
I600
tp254
ssS'reccard_window_39'
p255
(dp256
g193
(I0
I0
tp257
sg195
(I700
I600
tp258
ssS'reccard_window_84'
p259
(dp260
g171
(I0
I0
tp261
sg173
(I700
I600
tp262
ssS'readableUnits'
p263
I01
sS'useFractions'
p264
I01
sS'sautTog'
p265
(dp266
g136
I01
ssS'reccard_window_118'
p267
(dp268
S'position'
p269
(I0
I0
tp270
sS'window_size'
p271
(I1214
I785
tp272
ssS'reccard_window_69'
p273
(dp274
g42
(I0
I0
tp275
sg44
(I700
I600
tp276
ssS'app_window'
p277
(dp278
g101
(I207
I58
tp279
sS'window_size'
p280
(I1120
I991
tp281
ss.