(dp0
S'reccard_window_2'
p1
(dp2
S'position'
p3
(I0
I0
tp4
sS'window_size'
p5
(I1299
I748
tp6
ssS'reccard_window_3'
p7
(dp8
S'position'
p9
(I0
I0
tp10
sS'window_size'
p11
(I1246
I814
tp12
ssS'reccard_window_1'
p13
(dp14
S'position'
p15
(I0
I0
tp16
sS'window_size'
p17
(I700
I600
tp18
ssS'reccard_window_7'
p19
(dp20
S'position'
p21
(I0
I0
tp22
sS'window_size'
p23
(I700
I600
tp24
ssS'reccard_window_4'
p25
(dp26
S'position'
p27
(I0
I0
tp28
sS'window_size'
p29
(I999
I891
tp30
ssS'reccard_window_5'
p31
(dp32
S'position'
p33
(I0
I0
tp34
sS'window_size'
p35
(I700
I600
tp36
ssS'recipes_per_page'
p37
F30.0
sS'rectree_hidden_columns'
p38
(lp39
S'Website'
p40
aS'Yield'
p41
aS'Yield Unit'
p42
aS'Preparation Time'
p43
aS'Cooking Time'
p44
asS'reccard_window_70'
p45
(dp46
S'position'
p47
(I0
I0
tp48
sS'window_size'
p49
(I700
I600
tp50
ssS'reccard_window_65'
p51
(dp52
S'position'
p53
(I0
I0
tp54
sS'window_size'
p55
(I700
I600
tp56
ssS'reccard_window_25'
p57
(dp58
S'position'
p59
(I0
I0
tp60
sS'window_size'
p61
(I1465
I958
tp62
ssS'reccard_window_68'
p63
(dp64
g47
(I0
I0
tp65
sg49
(I700
I600
tp66
ssS'reccard_window_27'
p67
(dp68
S'position'
p69
(I0
I0
tp70
sS'window_size'
p71
(I700
I600
tp72
ssS'shopGuiWin'
p73
(dp74
sS'reccard_window_29'
p75
(dp76
g69
(I0
I0
tp77
sg71
(I700
I600
tp78
ssS'reccard_window_28'
p79
(dp80
g69
(I0
I0
tp81
sg71
(I700
I600
tp82
ssS'reccard_window_67'
p83
(dp84
g47
(I0
I0
tp85
sg49
(I700
I600
tp86
ssS'reccard_window_66'
p87
(dp88
g53
(I0
I0
tp89
sg55
(I700
I600
tp90
ssS'reccard_window_61'
p91
(dp92
g53
(I0
I0
tp93
sg55
(I700
I600
tp94
ssS'reccard_window_60'
p95
(dp96
g53
(I0
I0
tp97
sg55
(I700
I600
tp98
ssS'shopvpaned1'
p99
(dp100
S'position'
p101
I150
ssS'reccard_window_62'
p102
(dp103
g53
(I0
I0
tp104
sg55
(I1244
I743
tp105
ssS'reccard_window_56'
p106
(dp107
g53
(I0
I0
tp108
sg55
(I700
I600
tp109
ssS'reccard_window_57'
p110
(dp111
g53
(I0
I0
tp112
sg55
(I700
I600
tp113
ssS'reccard_window_51'
p114
(dp115
S'position'
p116
(I0
I0
tp117
sS'window_size'
p118
(I700
I600
tp119
ssS'reccard_window_53'
p120
(dp121
g116
(I0
I0
tp122
sg118
(I1409
I941
tp123
ssS'shophpaned1'
p124
(dp125
g101
I400
ssS'reccard_window_58'
p126
(dp127
g53
(I0
I0
tp128
sg55
(I700
I600
tp129
ssS'reccard_window_59'
p130
(dp131
g53
(I0
I0
tp132
sg55
(I700
I600
tp133
ssS'nutrition_to_highlight'
p134
S'kcal'
p135
sS'reccard_window_63'
p136
(dp137
g53
(I0
I0
tp138
sg55
(I700
I600
tp139
ssS'rectree_column_order'
p140
(dp141
sS'rec_editor_window'
p142
(dp143
S'position'
p144
(I0
I0
tp145
sS'window_size'
p146
(I1328
I600
tp147
ssS'reccard_window_33'
p148
(dp149
S'position'
p150
(I586
I65
tp151
sS'window_size'
p152
(I1134
I935
tp153
ssS'reccard_window_30'
p154
(dp155
g69
(I0
I0
tp156
sg71
(I700
I600
tp157
ssS'reccard_window_36'
p158
(dp159
g150
(I0
I0
tp160
sg152
(I700
I600
tp161
ssS'reccard_window_37'
p162
(dp163
g150
(I0
I0
tp164
sg152
(I700
I600
tp165
ssS'reccard_window_34'
p166
(dp167
g150
(I0
I0
tp168
sg152
(I700
I600
tp169
ssS'reccard_window_35'
p170
(dp171
g150
(I0
I0
tp172
sg152
(I700
I600
tp173
ssS'reccard_window_11'
p174
(dp175
g21
(I0
I0
tp176
sg23
(I700
I600
tp177
ssS'reccard_window_38'
p178
(dp179
g150
(I0
I0
tp180
sg152
(I700
I600
tp181
ssS'reccard_window_39'
p182
(dp183
g150
(I0
I0
tp184
sg152
(I700
I600
tp185
ssS'nutritionDruid'
p186
(dp187
g15
(I0
I0
tp188
sg17
(I717
I650
tp189
ssS'reccard_window_71'
p190
(dp191
g47
(I0
I0
tp192
sg49
(I700
I600
tp193
ssS'reccard_window_41'
p194
(dp195
g150
(I0
I0
tp196
sg152
(I700
I600
tp197
ssS'reccard_window_40'
p198
(dp199
g150
(I0
I0
tp200
sg152
(I700
I600
tp201
ssS'reccard_window_64'
p202
(dp203
g53
(I0
I0
tp204
sg55
(I700
I600
tp205
ssS'sautTog'
p206
(dp207
S'active'
p208
I01
ssS'regexpTog'
p209
(dp210
g208
I00
ssS'reccard_window_69'
p211
(dp212
g47
(I0
I0
tp213
sg49
(I700
I600
tp214
ssS'app_window'
p215
(dp216
g101
(I268
I108
tp217
sS'window_size'
p218
(I1120
I855
tp219
ss.