(dp0
S'reccard_window_2'
p1
(dp2
S'position'
p3
(I0
I0
tp4
sS'window_size'
p5
(I1299
I748
tp6
ssS'reccard_window_3'
p7
(dp8
S'position'
p9
(I0
I0
tp10
sS'window_size'
p11
(I1246
I814
tp12
ssS'reccard_window_1'
p13
(dp14
S'position'
p15
(I0
I0
tp16
sS'window_size'
p17
(I700
I600
tp18
ssS'reccard_window_7'
p19
(dp20
S'position'
p21
(I0
I0
tp22
sS'window_size'
p23
(I700
I600
tp24
ssS'reccard_window_4'
p25
(dp26
S'position'
p27
(I0
I0
tp28
sS'window_size'
p29
(I999
I891
tp30
ssS'reccard_window_5'
p31
(dp32
S'position'
p33
(I0
I0
tp34
sS'window_size'
p35
(I700
I600
tp36
ssS'recipes_per_page'
p37
F30.0
sS'shopGuiWin'
p38
(dp39
sS'reccard_window_35'
p40
(dp41
S'position'
p42
(I0
I0
tp43
sS'window_size'
p44
(I700
I600
tp45
ssS'reccard_window_118'
p46
(dp47
S'position'
p48
(I0
I0
tp49
sS'window_size'
p50
(I1214
I785
tp51
ssS'reccard_window_65'
p52
(dp53
S'position'
p54
(I0
I0
tp55
sS'window_size'
p56
(I700
I600
tp57
ssS'reccard_window_25'
p58
(dp59
S'position'
p60
(I0
I0
tp61
sS'window_size'
p62
(I1465
I958
tp63
ssS'reccard_window_68'
p64
(dp65
S'position'
p66
(I0
I0
tp67
sS'window_size'
p68
(I700
I600
tp69
ssS'reccard_window_27'
p70
(dp71
S'position'
p72
(I0
I0
tp73
sS'window_size'
p74
(I700
I600
tp75
ssS'rectree_hidden_columns'
p76
(lp77
S'Website'
p78
aS'Yield'
p79
aS'Yield Unit'
p80
aS'Preparation Time'
p81
aS'Cooking Time'
p82
asS'reccard_window_29'
p83
(dp84
g72
(I0
I0
tp85
sg74
(I700
I600
tp86
ssS'reccard_window_28'
p87
(dp88
g72
(I0
I0
tp89
sg74
(I700
I600
tp90
ssS'reccard_window_67'
p91
(dp92
g66
(I0
I0
tp93
sg68
(I700
I600
tp94
ssS'reccard_window_66'
p95
(dp96
g54
(I0
I0
tp97
sg56
(I700
I600
tp98
ssS'reccard_window_61'
p99
(dp100
g54
(I0
I0
tp101
sg56
(I700
I600
tp102
ssS'reccard_window_60'
p103
(dp104
g54
(I0
I0
tp105
sg56
(I700
I600
tp106
ssS'shopvpaned1'
p107
(dp108
S'position'
p109
I150
ssS'reccard_window_62'
p110
(dp111
g54
(I0
I0
tp112
sg56
(I1244
I743
tp113
ssS'reccard_window_56'
p114
(dp115
g54
(I0
I0
tp116
sg56
(I700
I600
tp117
ssS'reccard_window_57'
p118
(dp119
g54
(I0
I0
tp120
sg56
(I700
I600
tp121
ssS'reccard_window_185'
p122
(dp123
S'position'
p124
(I0
I0
tp125
sS'window_size'
p126
(I700
I600
tp127
ssS'reccard_window_51'
p128
(dp129
S'position'
p130
(I0
I0
tp131
sS'window_size'
p132
(I700
I600
tp133
ssS'reccard_window_53'
p134
(dp135
g130
(I0
I0
tp136
sg132
(I1409
I941
tp137
ssS'shophpaned1'
p138
(dp139
g109
I400
ssS'reccard_window_58'
p140
(dp141
g54
(I0
I0
tp142
sg56
(I700
I600
tp143
ssS'reccard_window_59'
p144
(dp145
g54
(I0
I0
tp146
sg56
(I700
I600
tp147
ssS'nutrition_to_highlight'
p148
S'kcal'
p149
sS'reccard_window_92'
p150
(dp151
S'position'
p152
(I0
I0
tp153
sS'window_size'
p154
(I1418
I888
tp155
ssS'reccard_window_94'
p156
(dp157
g152
(I0
I0
tp158
sg154
(I1470
I694
tp159
ssS'reccard_window_63'
p160
(dp161
g54
(I0
I0
tp162
sg56
(I700
I600
tp163
ssS'reccard_window_98'
p164
(dp165
g152
(I0
I0
tp166
sg154
(I1210
I785
tp167
ssS'reccard_window_100'
p168
(dp169
S'position'
p170
(I0
I0
tp171
sS'window_size'
p172
(I1227
I836
tp173
ssS'reccard_window_102'
p174
(dp175
S'position'
p176
(I0
I0
tp177
sS'window_size'
p178
(I1000
I733
tp179
ssS'reccard_window_95'
p180
(dp181
g152
(I0
I0
tp182
sg154
(I700
I600
tp183
ssS'reccard_window_179'
p184
(dp185
g124
(I0
I0
tp186
sg126
(I700
I600
tp187
ssS'rectree_column_order'
p188
(dp189
sS'nutritionDruid'
p190
(dp191
g15
(I0
I0
tp192
sg17
(I717
I650
tp193
ssS'reccard_window_69'
p194
(dp195
g66
(I0
I0
tp196
sg68
(I700
I600
tp197
ssS'PDF_EXP'
p198
(dp199
S'bottom_margin'
p200
F70.86614173228347
sS'font_size'
p201
I10
sS'orientation'
p202
S'Portrait'
p203
sS'right_margin'
p204
F70.86614173228347
sS'top_margin'
p205
F70.86614173228347
sS'page_layout'
p206
S'Plain'
p207
sS'page_size'
p208
S'Letter'
p209
sS'left_margin'
p210
F70.86614173228347
ssS'rec_editor_window'
p211
(dp212
S'position'
p213
(I0
I0
tp214
sS'window_size'
p215
(I1328
I600
tp216
ssS'reccard_window_33'
p217
(dp218
g42
(I586
I65
tp219
sg44
(I1134
I935
tp220
ssS'reccard_window_30'
p221
(dp222
g72
(I0
I0
tp223
sg74
(I700
I600
tp224
ssS'reccard_window_36'
p225
(dp226
g42
(I0
I0
tp227
sg44
(I700
I600
tp228
ssS'reccard_window_37'
p229
(dp230
g42
(I0
I0
tp231
sg44
(I700
I600
tp232
ssS'reccard_window_34'
p233
(dp234
g42
(I0
I0
tp235
sg44
(I700
I600
tp236
ssS'reccard_window_79'
p237
(dp238
S'position'
p239
(I0
I0
tp240
sS'window_size'
p241
(I700
I600
tp242
ssS'reccard_window_11'
p243
(dp244
g21
(I0
I0
tp245
sg23
(I700
I600
tp246
ssS'reccard_window_38'
p247
(dp248
g42
(I0
I0
tp249
sg44
(I700
I600
tp250
ssS'reccard_window_13'
p251
(dp252
S'position'
p253
(I0
I0
tp254
sS'window_size'
p255
(I700
I600
tp256
ssS'reccard_window_72'
p257
(dp258
g239
(I0
I0
tp259
sg241
(I700
I600
tp260
ssS'reccard_window_15'
p261
(dp262
S'position'
p263
(I993
I52
tp264
sS'window_size'
p265
(I700
I600
tp266
ssS'reccard_window_70'
p267
(dp268
g66
(I0
I0
tp269
sg68
(I700
I600
tp270
ssS'reccard_window_71'
p271
(dp272
g66
(I0
I0
tp273
sg68
(I700
I600
tp274
ssS'reccard_window_41'
p275
(dp276
g42
(I0
I0
tp277
sg44
(I700
I600
tp278
ssS'reccard_window_40'
p279
(dp280
g42
(I0
I0
tp281
sg44
(I700
I600
tp282
ssS'reccard_window_64'
p283
(dp284
g54
(I0
I0
tp285
sg56
(I700
I600
tp286
ssS'reccard_window_194'
p287
(dp288
g263
(I0
I0
tp289
sg265
(I1299
I600
tp290
ssS'reccard_window_20'
p291
(dp292
g263
(I0
I0
tp293
sg265
(I700
I600
tp294
ssS'reccard_window_16'
p295
(dp296
g263
(I0
I0
tp297
sg265
(I1368
I745
tp298
ssS'reccard_window_39'
p299
(dp300
g42
(I0
I0
tp301
sg44
(I700
I600
tp302
ssS'reccard_window_186'
p303
(dp304
g124
(I0
I0
tp305
sg126
(I700
I600
tp306
ssS'readableUnits'
p307
I01
sS'useFractions'
p308
I01
sS'reccard_window_84'
p309
(dp310
g239
(I0
I0
tp311
sg241
(I700
I600
tp312
ssS'sautTog'
p313
(dp314
S'active'
p315
I01
ssS'regexpTog'
p316
(dp317
g315
I00
ssS'reccard_window_113'
p318
(dp319
g176
(I0
I0
tp320
sg178
(I1149
I722
tp321
ssS'app_window'
p322
(dp323
g109
(I125
I52
tp324
sS'window_size'
p325
(I928
I965
tp326
ssS'reccard_window_110'
p327
(dp328
S'position'
p329
(I0
I0
tp330
sS'window_size'
p331
(I1327
I855
tp332
ss.