(dp0
S'reccard_window_2'
p1
(dp2
S'position'
p3
(I0
I0
tp4
sS'window_size'
p5
(I1299
I748
tp6
ssS'reccard_window_3'
p7
(dp8
S'position'
p9
(I0
I0
tp10
sS'window_size'
p11
(I1246
I814
tp12
ssS'reccard_window_1'
p13
(dp14
S'position'
p15
(I0
I0
tp16
sS'window_size'
p17
(I700
I600
tp18
ssS'reccard_window_7'
p19
(dp20
S'position'
p21
(I0
I0
tp22
sS'window_size'
p23
(I700
I600
tp24
ssS'reccard_window_4'
p25
(dp26
S'position'
p27
(I0
I0
tp28
sS'window_size'
p29
(I999
I891
tp30
ssS'reccard_window_5'
p31
(dp32
S'position'
p33
(I0
I0
tp34
sS'window_size'
p35
(I700
I600
tp36
ssS'recipes_per_page'
p37
F30.0
sS'shopGuiWin'
p38
(dp39
sS'reccard_window_70'
p40
(dp41
S'position'
p42
(I0
I0
tp43
sS'window_size'
p44
(I700
I600
tp45
ssS'reccard_window_65'
p46
(dp47
S'position'
p48
(I0
I0
tp49
sS'window_size'
p50
(I700
I600
tp51
ssS'reccard_window_25'
p52
(dp53
S'position'
p54
(I0
I0
tp55
sS'window_size'
p56
(I1465
I958
tp57
ssS'reccard_window_68'
p58
(dp59
g42
(I0
I0
tp60
sg44
(I700
I600
tp61
ssS'reccard_window_27'
p62
(dp63
S'position'
p64
(I0
I0
tp65
sS'window_size'
p66
(I700
I600
tp67
ssS'rectree_hidden_columns'
p68
(lp69
S'Website'
p70
aS'Yield'
p71
aS'Yield Unit'
p72
aS'Preparation Time'
p73
aS'Cooking Time'
p74
asS'reccard_window_29'
p75
(dp76
g64
(I0
I0
tp77
sg66
(I700
I600
tp78
ssS'reccard_window_28'
p79
(dp80
g64
(I0
I0
tp81
sg66
(I700
I600
tp82
ssS'reccard_window_67'
p83
(dp84
g42
(I0
I0
tp85
sg44
(I700
I600
tp86
ssS'reccard_window_66'
p87
(dp88
g48
(I0
I0
tp89
sg50
(I700
I600
tp90
ssS'reccard_window_61'
p91
(dp92
g48
(I0
I0
tp93
sg50
(I700
I600
tp94
ssS'reccard_window_60'
p95
(dp96
g48
(I0
I0
tp97
sg50
(I700
I600
tp98
ssS'shopvpaned1'
p99
(dp100
S'position'
p101
I150
ssS'reccard_window_62'
p102
(dp103
g48
(I0
I0
tp104
sg50
(I1244
I743
tp105
ssS'reccard_window_56'
p106
(dp107
g48
(I0
I0
tp108
sg50
(I700
I600
tp109
ssS'reccard_window_57'
p110
(dp111
g48
(I0
I0
tp112
sg50
(I700
I600
tp113
ssS'reccard_window_51'
p114
(dp115
S'position'
p116
(I0
I0
tp117
sS'window_size'
p118
(I700
I600
tp119
ssS'reccard_window_53'
p120
(dp121
g116
(I0
I0
tp122
sg118
(I1409
I941
tp123
ssS'shophpaned1'
p124
(dp125
g101
I400
ssS'reccard_window_58'
p126
(dp127
g48
(I0
I0
tp128
sg50
(I700
I600
tp129
ssS'reccard_window_59'
p130
(dp131
g48
(I0
I0
tp132
sg50
(I700
I600
tp133
ssS'regexpTog'
p134
(dp135
S'active'
p136
I00
ssS'nutrition_to_highlight'
p137
S'kcal'
p138
sS'reccard_window_92'
p139
(dp140
S'position'
p141
(I0
I0
tp142
sS'window_size'
p143
(I1418
I888
tp144
ssS'reccard_window_94'
p145
(dp146
g141
(I0
I0
tp147
sg143
(I1470
I694
tp148
ssS'reccard_window_63'
p149
(dp150
g48
(I0
I0
tp151
sg50
(I700
I600
tp152
ssS'reccard_window_98'
p153
(dp154
g141
(I0
I0
tp155
sg143
(I1210
I785
tp156
ssS'reccard_window_100'
p157
(dp158
S'position'
p159
(I0
I0
tp160
sS'window_size'
p161
(I1227
I836
tp162
ssS'reccard_window_95'
p163
(dp164
g141
(I0
I0
tp165
sg143
(I700
I600
tp166
ssS'rectree_column_order'
p167
(dp168
sS'rec_editor_window'
p169
(dp170
S'position'
p171
(I0
I0
tp172
sS'window_size'
p173
(I1328
I600
tp174
ssS'reccard_window_33'
p175
(dp176
S'position'
p177
(I586
I65
tp178
sS'window_size'
p179
(I1134
I935
tp180
ssS'reccard_window_30'
p181
(dp182
g64
(I0
I0
tp183
sg66
(I700
I600
tp184
ssS'reccard_window_36'
p185
(dp186
g177
(I0
I0
tp187
sg179
(I700
I600
tp188
ssS'reccard_window_37'
p189
(dp190
g177
(I0
I0
tp191
sg179
(I700
I600
tp192
ssS'reccard_window_34'
p193
(dp194
g177
(I0
I0
tp195
sg179
(I700
I600
tp196
ssS'reccard_window_79'
p197
(dp198
S'position'
p199
(I0
I0
tp200
sS'window_size'
p201
(I700
I600
tp202
ssS'reccard_window_11'
p203
(dp204
g21
(I0
I0
tp205
sg23
(I700
I600
tp206
ssS'reccard_window_38'
p207
(dp208
g177
(I0
I0
tp209
sg179
(I700
I600
tp210
ssS'reccard_window_13'
p211
(dp212
S'position'
p213
(I0
I0
tp214
sS'window_size'
p215
(I700
I600
tp216
ssS'reccard_window_72'
p217
(dp218
g199
(I0
I0
tp219
sg201
(I700
I600
tp220
ssS'nutritionDruid'
p221
(dp222
g15
(I0
I0
tp223
sg17
(I717
I650
tp224
ssS'reccard_window_71'
p225
(dp226
g42
(I0
I0
tp227
sg44
(I700
I600
tp228
ssS'reccard_window_41'
p229
(dp230
g177
(I0
I0
tp231
sg179
(I700
I600
tp232
ssS'reccard_window_40'
p233
(dp234
g177
(I0
I0
tp235
sg179
(I700
I600
tp236
ssS'reccard_window_64'
p237
(dp238
g48
(I0
I0
tp239
sg50
(I700
I600
tp240
ssS'reccard_window_39'
p241
(dp242
g177
(I0
I0
tp243
sg179
(I700
I600
tp244
ssS'reccard_window_84'
p245
(dp246
g199
(I0
I0
tp247
sg201
(I700
I600
tp248
ssS'readableUnits'
p249
I01
sS'sautTog'
p250
(dp251
g136
I01
ssS'reccard_window_35'
p252
(dp253
g177
(I0
I0
tp254
sg179
(I700
I600
tp255
ssS'reccard_window_69'
p256
(dp257
g42
(I0
I0
tp258
sg44
(I700
I600
tp259
ssS'app_window'
p260
(dp261
g101
(I221
I87
tp262
sS'window_size'
p263
(I1120
I855
tp264
ss.