(dp0
S'reccard_window_2'
p1
(dp2
S'position'
p3
(I0
I0
tp4
sS'window_size'
p5
(I1299
I748
tp6
ssS'reccard_window_3'
p7
(dp8
S'position'
p9
(I0
I0
tp10
sS'window_size'
p11
(I1246
I814
tp12
ssS'reccard_window_1'
p13
(dp14
S'position'
p15
(I0
I0
tp16
sS'window_size'
p17
(I700
I600
tp18
ssS'reccard_window_7'
p19
(dp20
S'position'
p21
(I0
I0
tp22
sS'window_size'
p23
(I700
I600
tp24
ssS'reccard_window_4'
p25
(dp26
S'position'
p27
(I0
I0
tp28
sS'window_size'
p29
(I999
I891
tp30
ssS'reccard_window_5'
p31
(dp32
S'position'
p33
(I0
I0
tp34
sS'window_size'
p35
(I700
I600
tp36
ssS'recipes_per_page'
p37
F30.0
sS'shopGuiWin'
p38
(dp39
sS'reccard_window_65'
p40
(dp41
S'position'
p42
(I0
I0
tp43
sS'window_size'
p44
(I700
I600
tp45
ssS'reccard_window_25'
p46
(dp47
S'position'
p48
(I0
I0
tp49
sS'window_size'
p50
(I1465
I958
tp51
ssS'reccard_window_68'
p52
(dp53
S'position'
p54
(I0
I0
tp55
sS'window_size'
p56
(I700
I600
tp57
ssS'reccard_window_27'
p58
(dp59
S'position'
p60
(I0
I0
tp61
sS'window_size'
p62
(I700
I600
tp63
ssS'rectree_hidden_columns'
p64
(lp65
S'Website'
p66
aS'Yield'
p67
aS'Yield Unit'
p68
aS'Preparation Time'
p69
aS'Cooking Time'
p70
asS'reccard_window_29'
p71
(dp72
g60
(I0
I0
tp73
sg62
(I700
I600
tp74
ssS'reccard_window_28'
p75
(dp76
g60
(I0
I0
tp77
sg62
(I700
I600
tp78
ssS'reccard_window_67'
p79
(dp80
g54
(I0
I0
tp81
sg56
(I700
I600
tp82
ssS'reccard_window_66'
p83
(dp84
g42
(I0
I0
tp85
sg44
(I700
I600
tp86
ssS'reccard_window_61'
p87
(dp88
g42
(I0
I0
tp89
sg44
(I700
I600
tp90
ssS'reccard_window_60'
p91
(dp92
g42
(I0
I0
tp93
sg44
(I700
I600
tp94
ssS'shopvpaned1'
p95
(dp96
S'position'
p97
I150
ssS'reccard_window_62'
p98
(dp99
g42
(I0
I0
tp100
sg44
(I1244
I743
tp101
ssS'reccard_window_56'
p102
(dp103
g42
(I0
I0
tp104
sg44
(I700
I600
tp105
ssS'reccard_window_57'
p106
(dp107
g42
(I0
I0
tp108
sg44
(I700
I600
tp109
ssS'reccard_window_51'
p110
(dp111
S'position'
p112
(I0
I0
tp113
sS'window_size'
p114
(I700
I600
tp115
ssS'reccard_window_53'
p116
(dp117
g112
(I0
I0
tp118
sg114
(I1409
I941
tp119
ssS'shophpaned1'
p120
(dp121
g97
I400
ssS'reccard_window_58'
p122
(dp123
g42
(I0
I0
tp124
sg44
(I700
I600
tp125
ssS'reccard_window_59'
p126
(dp127
g42
(I0
I0
tp128
sg44
(I700
I600
tp129
ssS'regexpTog'
p130
(dp131
S'active'
p132
I00
ssS'nutrition_to_highlight'
p133
S'kcal'
p134
sS'reccard_window_63'
p135
(dp136
g42
(I0
I0
tp137
sg44
(I700
I600
tp138
ssS'rectree_column_order'
p139
(dp140
sS'nutritionDruid'
p141
(dp142
g15
(I0
I0
tp143
sg17
(I717
I650
tp144
ssS'rec_editor_window'
p145
(dp146
S'position'
p147
(I0
I0
tp148
sS'window_size'
p149
(I1328
I600
tp150
ssS'reccard_window_33'
p151
(dp152
S'position'
p153
(I586
I65
tp154
sS'window_size'
p155
(I1134
I935
tp156
ssS'reccard_window_30'
p157
(dp158
g60
(I0
I0
tp159
sg62
(I700
I600
tp160
ssS'reccard_window_36'
p161
(dp162
g153
(I0
I0
tp163
sg155
(I700
I600
tp164
ssS'reccard_window_37'
p165
(dp166
g153
(I0
I0
tp167
sg155
(I700
I600
tp168
ssS'reccard_window_34'
p169
(dp170
g153
(I0
I0
tp171
sg155
(I700
I600
tp172
ssS'reccard_window_79'
p173
(dp174
S'position'
p175
(I0
I0
tp176
sS'window_size'
p177
(I700
I600
tp178
ssS'reccard_window_11'
p179
(dp180
g21
(I0
I0
tp181
sg23
(I700
I600
tp182
ssS'reccard_window_38'
p183
(dp184
g153
(I0
I0
tp185
sg155
(I700
I600
tp186
ssS'reccard_window_13'
p187
(dp188
S'position'
p189
(I0
I0
tp190
sS'window_size'
p191
(I700
I600
tp192
ssS'reccard_window_72'
p193
(dp194
g175
(I0
I0
tp195
sg177
(I700
I600
tp196
ssS'reccard_window_70'
p197
(dp198
g54
(I0
I0
tp199
sg56
(I700
I600
tp200
ssS'reccard_window_71'
p201
(dp202
g54
(I0
I0
tp203
sg56
(I700
I600
tp204
ssS'reccard_window_41'
p205
(dp206
g153
(I0
I0
tp207
sg155
(I700
I600
tp208
ssS'reccard_window_40'
p209
(dp210
g153
(I0
I0
tp211
sg155
(I700
I600
tp212
ssS'reccard_window_64'
p213
(dp214
g42
(I0
I0
tp215
sg44
(I700
I600
tp216
ssS'reccard_window_39'
p217
(dp218
g153
(I0
I0
tp219
sg155
(I700
I600
tp220
ssS'reccard_window_84'
p221
(dp222
g175
(I0
I0
tp223
sg177
(I700
I600
tp224
ssS'readableUnits'
p225
I01
sS'sautTog'
p226
(dp227
g132
I01
ssS'reccard_window_35'
p228
(dp229
g153
(I0
I0
tp230
sg155
(I700
I600
tp231
ssS'reccard_window_69'
p232
(dp233
g54
(I0
I0
tp234
sg56
(I700
I600
tp235
ssS'app_window'
p236
(dp237
g97
(I377
I115
tp238
sS'window_size'
p239
(I1120
I855
tp240
ss.