(dp0
S'reccard_window_2'
p1
(dp2
S'position'
p3
(I0
I0
tp4
sS'window_size'
p5
(I1299
I748
tp6
ssS'reccard_window_3'
p7
(dp8
S'position'
p9
(I0
I0
tp10
sS'window_size'
p11
(I1246
I814
tp12
ssS'reccard_window_1'
p13
(dp14
S'position'
p15
(I0
I0
tp16
sS'window_size'
p17
(I700
I600
tp18
ssS'reccard_window_7'
p19
(dp20
S'position'
p21
(I0
I0
tp22
sS'window_size'
p23
(I700
I600
tp24
ssS'reccard_window_4'
p25
(dp26
S'position'
p27
(I0
I0
tp28
sS'window_size'
p29
(I999
I891
tp30
ssS'reccard_window_5'
p31
(dp32
S'position'
p33
(I0
I0
tp34
sS'window_size'
p35
(I700
I600
tp36
ssS'recipes_per_page'
p37
F30.0
sS'shopGuiWin'
p38
(dp39
sS'reccard_window_65'
p40
(dp41
S'position'
p42
(I0
I0
tp43
sS'window_size'
p44
(I700
I600
tp45
ssS'reccard_window_25'
p46
(dp47
S'position'
p48
(I0
I0
tp49
sS'window_size'
p50
(I1465
I958
tp51
ssS'reccard_window_68'
p52
(dp53
S'position'
p54
(I0
I0
tp55
sS'window_size'
p56
(I700
I600
tp57
ssS'reccard_window_27'
p58
(dp59
S'position'
p60
(I0
I0
tp61
sS'window_size'
p62
(I700
I600
tp63
ssS'rectree_hidden_columns'
p64
(lp65
S'Website'
p66
aS'Yield'
p67
aS'Yield Unit'
p68
aS'Preparation Time'
p69
aS'Cooking Time'
p70
asS'reccard_window_29'
p71
(dp72
g60
(I0
I0
tp73
sg62
(I700
I600
tp74
ssS'reccard_window_28'
p75
(dp76
g60
(I0
I0
tp77
sg62
(I700
I600
tp78
ssS'reccard_window_67'
p79
(dp80
g54
(I0
I0
tp81
sg56
(I700
I600
tp82
ssS'reccard_window_66'
p83
(dp84
g42
(I0
I0
tp85
sg44
(I700
I600
tp86
ssS'reccard_window_61'
p87
(dp88
g42
(I0
I0
tp89
sg44
(I700
I600
tp90
ssS'reccard_window_60'
p91
(dp92
g42
(I0
I0
tp93
sg44
(I700
I600
tp94
ssS'shopvpaned1'
p95
(dp96
S'position'
p97
I150
ssS'reccard_window_62'
p98
(dp99
g42
(I0
I0
tp100
sg44
(I1244
I743
tp101
ssS'reccard_window_56'
p102
(dp103
g42
(I0
I0
tp104
sg44
(I700
I600
tp105
ssS'reccard_window_57'
p106
(dp107
g42
(I0
I0
tp108
sg44
(I700
I600
tp109
ssS'reccard_window_51'
p110
(dp111
S'position'
p112
(I0
I0
tp113
sS'window_size'
p114
(I700
I600
tp115
ssS'reccard_window_53'
p116
(dp117
g112
(I0
I0
tp118
sg114
(I1409
I941
tp119
ssS'shophpaned1'
p120
(dp121
g97
I400
ssS'reccard_window_58'
p122
(dp123
g42
(I0
I0
tp124
sg44
(I700
I600
tp125
ssS'reccard_window_59'
p126
(dp127
g42
(I0
I0
tp128
sg44
(I700
I600
tp129
ssS'nutrition_to_highlight'
p130
S'kcal'
p131
sS'reccard_window_92'
p132
(dp133
S'position'
p134
(I0
I0
tp135
sS'window_size'
p136
(I1418
I888
tp137
ssS'reccard_window_94'
p138
(dp139
g134
(I0
I0
tp140
sg136
(I1470
I694
tp141
ssS'reccard_window_63'
p142
(dp143
g42
(I0
I0
tp144
sg44
(I700
I600
tp145
ssS'reccard_window_98'
p146
(dp147
g134
(I0
I0
tp148
sg136
(I1210
I785
tp149
ssS'reccard_window_79'
p150
(dp151
S'position'
p152
(I0
I0
tp153
sS'window_size'
p154
(I700
I600
tp155
ssS'reccard_window_95'
p156
(dp157
g134
(I0
I0
tp158
sg136
(I700
I600
tp159
ssS'rectree_column_order'
p160
(dp161
sS'nutritionDruid'
p162
(dp163
g15
(I0
I0
tp164
sg17
(I717
I650
tp165
ssS'rec_editor_window'
p166
(dp167
S'position'
p168
(I0
I0
tp169
sS'window_size'
p170
(I1328
I600
tp171
ssS'reccard_window_33'
p172
(dp173
S'position'
p174
(I586
I65
tp175
sS'window_size'
p176
(I1134
I935
tp177
ssS'reccard_window_30'
p178
(dp179
g60
(I0
I0
tp180
sg62
(I700
I600
tp181
ssS'reccard_window_36'
p182
(dp183
g174
(I0
I0
tp184
sg176
(I700
I600
tp185
ssS'reccard_window_37'
p186
(dp187
g174
(I0
I0
tp188
sg176
(I700
I600
tp189
ssS'reccard_window_34'
p190
(dp191
g174
(I0
I0
tp192
sg176
(I700
I600
tp193
ssS'reccard_window_35'
p194
(dp195
g174
(I0
I0
tp196
sg176
(I700
I600
tp197
ssS'reccard_window_11'
p198
(dp199
g21
(I0
I0
tp200
sg23
(I700
I600
tp201
ssS'reccard_window_38'
p202
(dp203
g174
(I0
I0
tp204
sg176
(I700
I600
tp205
ssS'reccard_window_13'
p206
(dp207
S'position'
p208
(I0
I0
tp209
sS'window_size'
p210
(I700
I600
tp211
ssS'reccard_window_72'
p212
(dp213
g152
(I0
I0
tp214
sg154
(I700
I600
tp215
ssS'reccard_window_70'
p216
(dp217
g54
(I0
I0
tp218
sg56
(I700
I600
tp219
ssS'reccard_window_71'
p220
(dp221
g54
(I0
I0
tp222
sg56
(I700
I600
tp223
ssS'reccard_window_41'
p224
(dp225
g174
(I0
I0
tp226
sg176
(I700
I600
tp227
ssS'reccard_window_40'
p228
(dp229
g174
(I0
I0
tp230
sg176
(I700
I600
tp231
ssS'reccard_window_64'
p232
(dp233
g42
(I0
I0
tp234
sg44
(I700
I600
tp235
ssS'reccard_window_39'
p236
(dp237
g174
(I0
I0
tp238
sg176
(I700
I600
tp239
ssS'reccard_window_84'
p240
(dp241
g152
(I0
I0
tp242
sg154
(I700
I600
tp243
ssS'readableUnits'
p244
I01
sS'sautTog'
p245
(dp246
S'active'
p247
I01
ssS'regexpTog'
p248
(dp249
g247
I00
ssS'reccard_window_69'
p250
(dp251
g54
(I0
I0
tp252
sg56
(I700
I600
tp253
ssS'app_window'
p254
(dp255
g97
(I221
I59
tp256
sS'window_size'
p257
(I1120
I855
tp258
ss.