(dp0
S'reccard_window_2'
p1
(dp2
S'position'
p3
(I0
I0
tp4
sS'window_size'
p5
(I1299
I748
tp6
ssS'reccard_window_3'
p7
(dp8
S'position'
p9
(I0
I0
tp10
sS'window_size'
p11
(I1246
I814
tp12
ssS'reccard_window_1'
p13
(dp14
S'position'
p15
(I0
I0
tp16
sS'window_size'
p17
(I700
I600
tp18
ssS'reccard_window_7'
p19
(dp20
S'position'
p21
(I0
I0
tp22
sS'window_size'
p23
(I700
I600
tp24
ssS'reccard_window_4'
p25
(dp26
S'position'
p27
(I0
I0
tp28
sS'window_size'
p29
(I999
I891
tp30
ssS'reccard_window_5'
p31
(dp32
S'position'
p33
(I0
I0
tp34
sS'window_size'
p35
(I700
I600
tp36
ssS'recipes_per_page'
p37
F30.0
sS'shopGuiWin'
p38
(dp39
sS'reccard_window_35'
p40
(dp41
S'position'
p42
(I0
I0
tp43
sS'window_size'
p44
(I700
I600
tp45
ssS'reccard_window_118'
p46
(dp47
S'position'
p48
(I0
I0
tp49
sS'window_size'
p50
(I1214
I785
tp51
ssS'reccard_window_65'
p52
(dp53
S'position'
p54
(I0
I0
tp55
sS'window_size'
p56
(I700
I600
tp57
ssS'reccard_window_25'
p58
(dp59
S'position'
p60
(I0
I0
tp61
sS'window_size'
p62
(I1465
I958
tp63
ssS'reccard_window_68'
p64
(dp65
S'position'
p66
(I0
I0
tp67
sS'window_size'
p68
(I700
I600
tp69
ssS'reccard_window_27'
p70
(dp71
S'position'
p72
(I0
I0
tp73
sS'window_size'
p74
(I700
I600
tp75
ssS'rectree_hidden_columns'
p76
(lp77
S'Website'
p78
aS'Yield'
p79
aS'Yield Unit'
p80
aS'Preparation Time'
p81
aS'Cooking Time'
p82
asS'reccard_window_29'
p83
(dp84
g72
(I0
I0
tp85
sg74
(I700
I600
tp86
ssS'reccard_window_28'
p87
(dp88
g72
(I0
I0
tp89
sg74
(I700
I600
tp90
ssS'reccard_window_67'
p91
(dp92
g66
(I0
I0
tp93
sg68
(I700
I600
tp94
ssS'reccard_window_66'
p95
(dp96
g54
(I0
I0
tp97
sg56
(I700
I600
tp98
ssS'reccard_window_61'
p99
(dp100
g54
(I0
I0
tp101
sg56
(I700
I600
tp102
ssS'reccard_window_60'
p103
(dp104
g54
(I0
I0
tp105
sg56
(I700
I600
tp106
ssS'shopvpaned1'
p107
(dp108
S'position'
p109
I150
ssS'reccard_window_62'
p110
(dp111
g54
(I0
I0
tp112
sg56
(I1244
I743
tp113
ssS'reccard_window_56'
p114
(dp115
g54
(I0
I0
tp116
sg56
(I700
I600
tp117
ssS'reccard_window_57'
p118
(dp119
g54
(I0
I0
tp120
sg56
(I700
I600
tp121
ssS'reccard_window_185'
p122
(dp123
S'position'
p124
(I0
I0
tp125
sS'window_size'
p126
(I700
I600
tp127
ssS'reccard_window_51'
p128
(dp129
S'position'
p130
(I0
I0
tp131
sS'window_size'
p132
(I700
I600
tp133
ssS'reccard_window_53'
p134
(dp135
g130
(I0
I0
tp136
sg132
(I1409
I941
tp137
ssS'shophpaned1'
p138
(dp139
g109
I400
ssS'reccard_window_58'
p140
(dp141
g54
(I0
I0
tp142
sg56
(I700
I600
tp143
ssS'reccard_window_59'
p144
(dp145
g54
(I0
I0
tp146
sg56
(I700
I600
tp147
ssS'nutrition_to_highlight'
p148
S'kcal'
p149
sS'reccard_window_92'
p150
(dp151
S'position'
p152
(I0
I0
tp153
sS'window_size'
p154
(I1418
I888
tp155
ssS'reccard_window_94'
p156
(dp157
g152
(I0
I0
tp158
sg154
(I1470
I694
tp159
ssS'reccard_window_63'
p160
(dp161
g54
(I0
I0
tp162
sg56
(I700
I600
tp163
ssS'reccard_window_98'
p164
(dp165
g152
(I0
I0
tp166
sg154
(I1210
I785
tp167
ssS'reccard_window_100'
p168
(dp169
S'position'
p170
(I0
I0
tp171
sS'window_size'
p172
(I1227
I836
tp173
ssS'reccard_window_102'
p174
(dp175
S'position'
p176
(I0
I0
tp177
sS'window_size'
p178
(I1000
I733
tp179
ssS'reccard_window_95'
p180
(dp181
g152
(I0
I0
tp182
sg154
(I700
I600
tp183
ssS'reccard_window_179'
p184
(dp185
g124
(I0
I0
tp186
sg126
(I700
I600
tp187
ssS'rectree_column_order'
p188
(dp189
sS'nutritionDruid'
p190
(dp191
g15
(I0
I0
tp192
sg17
(I717
I650
tp193
ssS'reccard_window_69'
p194
(dp195
g66
(I0
I0
tp196
sg68
(I700
I600
tp197
ssS'rec_editor_window'
p198
(dp199
S'position'
p200
(I0
I0
tp201
sS'window_size'
p202
(I1328
I600
tp203
ssS'reccard_window_33'
p204
(dp205
g42
(I586
I65
tp206
sg44
(I1134
I935
tp207
ssS'reccard_window_30'
p208
(dp209
g72
(I0
I0
tp210
sg74
(I700
I600
tp211
ssS'reccard_window_36'
p212
(dp213
g42
(I0
I0
tp214
sg44
(I700
I600
tp215
ssS'reccard_window_37'
p216
(dp217
g42
(I0
I0
tp218
sg44
(I700
I600
tp219
ssS'reccard_window_34'
p220
(dp221
g42
(I0
I0
tp222
sg44
(I700
I600
tp223
ssS'reccard_window_79'
p224
(dp225
S'position'
p226
(I0
I0
tp227
sS'window_size'
p228
(I700
I600
tp229
ssS'reccard_window_11'
p230
(dp231
g21
(I0
I0
tp232
sg23
(I700
I600
tp233
ssS'reccard_window_38'
p234
(dp235
g42
(I0
I0
tp236
sg44
(I700
I600
tp237
ssS'reccard_window_13'
p238
(dp239
S'position'
p240
(I0
I0
tp241
sS'window_size'
p242
(I700
I600
tp243
ssS'reccard_window_72'
p244
(dp245
g226
(I0
I0
tp246
sg228
(I700
I600
tp247
ssS'reccard_window_15'
p248
(dp249
S'position'
p250
(I993
I52
tp251
sS'window_size'
p252
(I700
I600
tp253
ssS'reccard_window_70'
p254
(dp255
g66
(I0
I0
tp256
sg68
(I700
I600
tp257
ssS'reccard_window_71'
p258
(dp259
g66
(I0
I0
tp260
sg68
(I700
I600
tp261
ssS'reccard_window_41'
p262
(dp263
g42
(I0
I0
tp264
sg44
(I700
I600
tp265
ssS'reccard_window_40'
p266
(dp267
g42
(I0
I0
tp268
sg44
(I700
I600
tp269
ssS'reccard_window_64'
p270
(dp271
g54
(I0
I0
tp272
sg56
(I700
I600
tp273
ssS'reccard_window_194'
p274
(dp275
g250
(I0
I0
tp276
sg252
(I1299
I600
tp277
ssS'reccard_window_20'
p278
(dp279
g250
(I0
I0
tp280
sg252
(I700
I600
tp281
ssS'reccard_window_16'
p282
(dp283
g250
(I0
I0
tp284
sg252
(I1368
I745
tp285
ssS'reccard_window_39'
p286
(dp287
g42
(I0
I0
tp288
sg44
(I700
I600
tp289
ssS'reccard_window_186'
p290
(dp291
g124
(I0
I0
tp292
sg126
(I700
I600
tp293
ssS'readableUnits'
p294
I01
sS'useFractions'
p295
I01
sS'reccard_window_84'
p296
(dp297
g226
(I0
I0
tp298
sg228
(I700
I600
tp299
ssS'sautTog'
p300
(dp301
S'active'
p302
I01
ssS'regexpTog'
p303
(dp304
g302
I00
ssS'reccard_window_113'
p305
(dp306
g176
(I0
I0
tp307
sg178
(I1149
I722
tp308
ssS'app_window'
p309
(dp310
g109
(I65
I52
tp311
sS'window_size'
p312
(I928
I965
tp313
ss.