(dp0
S'reccard_window_2'
p1
(dp2
S'position'
p3
(I0
I0
tp4
sS'window_size'
p5
(I1299
I748
tp6
ssS'reccard_window_3'
p7
(dp8
S'position'
p9
(I0
I0
tp10
sS'window_size'
p11
(I1246
I814
tp12
ssS'reccard_window_1'
p13
(dp14
S'position'
p15
(I0
I0
tp16
sS'window_size'
p17
(I700
I600
tp18
ssS'reccard_window_7'
p19
(dp20
S'position'
p21
(I0
I0
tp22
sS'window_size'
p23
(I700
I600
tp24
ssS'reccard_window_4'
p25
(dp26
S'position'
p27
(I0
I0
tp28
sS'window_size'
p29
(I999
I891
tp30
ssS'reccard_window_5'
p31
(dp32
S'position'
p33
(I0
I0
tp34
sS'window_size'
p35
(I700
I600
tp36
ssS'recipes_per_page'
p37
F30.0
sS'shopGuiWin'
p38
(dp39
sS'reccard_window_35'
p40
(dp41
S'position'
p42
(I0
I0
tp43
sS'window_size'
p44
(I700
I600
tp45
ssS'reccard_window_118'
p46
(dp47
S'position'
p48
(I0
I0
tp49
sS'window_size'
p50
(I1214
I785
tp51
ssS'reccard_window_65'
p52
(dp53
S'position'
p54
(I0
I0
tp55
sS'window_size'
p56
(I700
I600
tp57
ssS'reccard_window_25'
p58
(dp59
S'position'
p60
(I0
I0
tp61
sS'window_size'
p62
(I1465
I958
tp63
ssS'reccard_window_68'
p64
(dp65
S'position'
p66
(I0
I0
tp67
sS'window_size'
p68
(I700
I600
tp69
ssS'reccard_window_27'
p70
(dp71
S'position'
p72
(I0
I0
tp73
sS'window_size'
p74
(I700
I600
tp75
ssS'rectree_hidden_columns'
p76
(lp77
S'Website'
p78
aS'Yield'
p79
aS'Yield Unit'
p80
aS'Preparation Time'
p81
aS'Cooking Time'
p82
asS'reccard_window_29'
p83
(dp84
g72
(I0
I0
tp85
sg74
(I700
I600
tp86
ssS'reccard_window_28'
p87
(dp88
g72
(I0
I0
tp89
sg74
(I700
I600
tp90
ssS'reccard_window_67'
p91
(dp92
g66
(I0
I0
tp93
sg68
(I700
I600
tp94
ssS'reccard_window_66'
p95
(dp96
g54
(I0
I0
tp97
sg56
(I700
I600
tp98
ssS'reccard_window_61'
p99
(dp100
g54
(I0
I0
tp101
sg56
(I700
I600
tp102
ssS'reccard_window_60'
p103
(dp104
g54
(I0
I0
tp105
sg56
(I700
I600
tp106
ssS'shopvpaned1'
p107
(dp108
S'position'
p109
I150
ssS'reccard_window_62'
p110
(dp111
g54
(I0
I0
tp112
sg56
(I1244
I743
tp113
ssS'reccard_window_56'
p114
(dp115
g54
(I0
I0
tp116
sg56
(I700
I600
tp117
ssS'reccard_window_57'
p118
(dp119
g54
(I0
I0
tp120
sg56
(I700
I600
tp121
ssS'reccard_window_51'
p122
(dp123
S'position'
p124
(I0
I0
tp125
sS'window_size'
p126
(I700
I600
tp127
ssS'reccard_window_53'
p128
(dp129
g124
(I0
I0
tp130
sg126
(I1409
I941
tp131
ssS'shophpaned1'
p132
(dp133
g109
I400
ssS'reccard_window_58'
p134
(dp135
g54
(I0
I0
tp136
sg56
(I700
I600
tp137
ssS'reccard_window_59'
p138
(dp139
g54
(I0
I0
tp140
sg56
(I700
I600
tp141
ssS'nutrition_to_highlight'
p142
S'kcal'
p143
sS'reccard_window_92'
p144
(dp145
S'position'
p146
(I0
I0
tp147
sS'window_size'
p148
(I1418
I888
tp149
ssS'reccard_window_94'
p150
(dp151
g146
(I0
I0
tp152
sg148
(I1470
I694
tp153
ssS'reccard_window_63'
p154
(dp155
g54
(I0
I0
tp156
sg56
(I700
I600
tp157
ssS'reccard_window_98'
p158
(dp159
g146
(I0
I0
tp160
sg148
(I1210
I785
tp161
ssS'reccard_window_100'
p162
(dp163
S'position'
p164
(I0
I0
tp165
sS'window_size'
p166
(I1227
I836
tp167
ssS'reccard_window_102'
p168
(dp169
S'position'
p170
(I0
I0
tp171
sS'window_size'
p172
(I1000
I733
tp173
ssS'reccard_window_95'
p174
(dp175
g146
(I0
I0
tp176
sg148
(I700
I600
tp177
ssS'rectree_column_order'
p178
(dp179
sS'nutritionDruid'
p180
(dp181
g15
(I0
I0
tp182
sg17
(I717
I650
tp183
ssS'reccard_window_69'
p184
(dp185
g66
(I0
I0
tp186
sg68
(I700
I600
tp187
ssS'rec_editor_window'
p188
(dp189
S'position'
p190
(I0
I0
tp191
sS'window_size'
p192
(I1328
I600
tp193
ssS'reccard_window_33'
p194
(dp195
g42
(I586
I65
tp196
sg44
(I1134
I935
tp197
ssS'reccard_window_30'
p198
(dp199
g72
(I0
I0
tp200
sg74
(I700
I600
tp201
ssS'reccard_window_36'
p202
(dp203
g42
(I0
I0
tp204
sg44
(I700
I600
tp205
ssS'reccard_window_37'
p206
(dp207
g42
(I0
I0
tp208
sg44
(I700
I600
tp209
ssS'reccard_window_34'
p210
(dp211
g42
(I0
I0
tp212
sg44
(I700
I600
tp213
ssS'reccard_window_79'
p214
(dp215
S'position'
p216
(I0
I0
tp217
sS'window_size'
p218
(I700
I600
tp219
ssS'reccard_window_11'
p220
(dp221
g21
(I0
I0
tp222
sg23
(I700
I600
tp223
ssS'reccard_window_38'
p224
(dp225
g42
(I0
I0
tp226
sg44
(I700
I600
tp227
ssS'reccard_window_13'
p228
(dp229
S'position'
p230
(I0
I0
tp231
sS'window_size'
p232
(I700
I600
tp233
ssS'reccard_window_72'
p234
(dp235
g216
(I0
I0
tp236
sg218
(I700
I600
tp237
ssS'reccard_window_70'
p238
(dp239
g66
(I0
I0
tp240
sg68
(I700
I600
tp241
ssS'reccard_window_71'
p242
(dp243
g66
(I0
I0
tp244
sg68
(I700
I600
tp245
ssS'reccard_window_41'
p246
(dp247
g42
(I0
I0
tp248
sg44
(I700
I600
tp249
ssS'reccard_window_40'
p250
(dp251
g42
(I0
I0
tp252
sg44
(I700
I600
tp253
ssS'reccard_window_64'
p254
(dp255
g54
(I0
I0
tp256
sg56
(I700
I600
tp257
ssS'reccard_window_39'
p258
(dp259
g42
(I0
I0
tp260
sg44
(I700
I600
tp261
ssS'reccard_window_84'
p262
(dp263
g216
(I0
I0
tp264
sg218
(I700
I600
tp265
ssS'readableUnits'
p266
I01
sS'useFractions'
p267
I01
sS'sautTog'
p268
(dp269
S'active'
p270
I01
ssS'regexpTog'
p271
(dp272
g270
I00
ssS'reccard_window_113'
p273
(dp274
g170
(I0
I0
tp275
sg172
(I1149
I722
tp276
ssS'app_window'
p277
(dp278
g109
(I65
I52
tp279
sS'window_size'
p280
(I928
I1028
tp281
ss.