(dp0
S'reccard_window_2'
p1
(dp2
S'position'
p3
(I0
I0
tp4
sS'window_size'
p5
(I1299
I748
tp6
ssS'reccard_window_3'
p7
(dp8
S'position'
p9
(I0
I0
tp10
sS'window_size'
p11
(I1246
I814
tp12
ssS'reccard_window_1'
p13
(dp14
S'position'
p15
(I0
I0
tp16
sS'window_size'
p17
(I700
I600
tp18
ssS'reccard_window_7'
p19
(dp20
S'position'
p21
(I0
I0
tp22
sS'window_size'
p23
(I700
I600
tp24
ssS'reccard_window_4'
p25
(dp26
S'position'
p27
(I0
I0
tp28
sS'window_size'
p29
(I999
I891
tp30
ssS'reccard_window_5'
p31
(dp32
S'position'
p33
(I0
I0
tp34
sS'window_size'
p35
(I700
I600
tp36
ssS'recipes_per_page'
p37
F30.0
sS'shopGuiWin'
p38
(dp39
sS'reccard_window_70'
p40
(dp41
S'position'
p42
(I0
I0
tp43
sS'window_size'
p44
(I700
I600
tp45
ssS'reccard_window_65'
p46
(dp47
S'position'
p48
(I0
I0
tp49
sS'window_size'
p50
(I700
I600
tp51
ssS'reccard_window_25'
p52
(dp53
S'position'
p54
(I0
I0
tp55
sS'window_size'
p56
(I1465
I958
tp57
ssS'reccard_window_68'
p58
(dp59
g42
(I0
I0
tp60
sg44
(I700
I600
tp61
ssS'reccard_window_27'
p62
(dp63
S'position'
p64
(I0
I0
tp65
sS'window_size'
p66
(I700
I600
tp67
ssS'rectree_hidden_columns'
p68
(lp69
S'Website'
p70
aS'Yield'
p71
aS'Yield Unit'
p72
aS'Preparation Time'
p73
aS'Cooking Time'
p74
asS'reccard_window_29'
p75
(dp76
g64
(I0
I0
tp77
sg66
(I700
I600
tp78
ssS'reccard_window_28'
p79
(dp80
g64
(I0
I0
tp81
sg66
(I700
I600
tp82
ssS'reccard_window_67'
p83
(dp84
g42
(I0
I0
tp85
sg44
(I700
I600
tp86
ssS'reccard_window_66'
p87
(dp88
g48
(I0
I0
tp89
sg50
(I700
I600
tp90
ssS'reccard_window_61'
p91
(dp92
g48
(I0
I0
tp93
sg50
(I700
I600
tp94
ssS'reccard_window_60'
p95
(dp96
g48
(I0
I0
tp97
sg50
(I700
I600
tp98
ssS'shopvpaned1'
p99
(dp100
S'position'
p101
I150
ssS'reccard_window_62'
p102
(dp103
g48
(I0
I0
tp104
sg50
(I1244
I743
tp105
ssS'reccard_window_56'
p106
(dp107
g48
(I0
I0
tp108
sg50
(I700
I600
tp109
ssS'reccard_window_57'
p110
(dp111
g48
(I0
I0
tp112
sg50
(I700
I600
tp113
ssS'reccard_window_185'
p114
(dp115
S'position'
p116
(I0
I0
tp117
sS'window_size'
p118
(I700
I600
tp119
ssS'reccard_window_51'
p120
(dp121
S'position'
p122
(I0
I0
tp123
sS'window_size'
p124
(I700
I600
tp125
ssS'reccard_window_53'
p126
(dp127
g122
(I0
I0
tp128
sg124
(I1409
I941
tp129
ssS'shophpaned1'
p130
(dp131
g101
I400
ssS'reccard_window_58'
p132
(dp133
g48
(I0
I0
tp134
sg50
(I700
I600
tp135
ssS'reccard_window_59'
p136
(dp137
g48
(I0
I0
tp138
sg50
(I700
I600
tp139
ssS'regexpTog'
p140
(dp141
S'active'
p142
I00
ssS'nutrition_to_highlight'
p143
S'kcal'
p144
sS'reccard_window_113'
p145
(dp146
S'position'
p147
(I0
I0
tp148
sS'window_size'
p149
(I1149
I722
tp150
ssS'reccard_window_92'
p151
(dp152
S'position'
p153
(I0
I0
tp154
sS'window_size'
p155
(I1418
I888
tp156
ssS'reccard_window_94'
p157
(dp158
g153
(I0
I0
tp159
sg155
(I1470
I694
tp160
ssS'reccard_window_63'
p161
(dp162
g48
(I0
I0
tp163
sg50
(I700
I600
tp164
ssS'reccard_window_98'
p165
(dp166
g153
(I0
I0
tp167
sg155
(I1210
I785
tp168
ssS'reccard_window_100'
p169
(dp170
S'position'
p171
(I0
I0
tp172
sS'window_size'
p173
(I1227
I836
tp174
ssS'reccard_window_79'
p175
(dp176
S'position'
p177
(I0
I0
tp178
sS'window_size'
p179
(I700
I600
tp180
ssS'reccard_window_102'
p181
(dp182
g147
(I0
I0
tp183
sg149
(I1000
I733
tp184
ssS'reccard_window_95'
p185
(dp186
g153
(I0
I0
tp187
sg155
(I700
I600
tp188
ssS'reccard_window_179'
p189
(dp190
g116
(I0
I0
tp191
sg118
(I700
I600
tp192
ssS'rectree_column_order'
p193
(dp194
sS'rec_editor_window'
p195
(dp196
S'position'
p197
(I0
I0
tp198
sS'window_size'
p199
(I1328
I600
tp200
ssS'reccard_window_33'
p201
(dp202
S'position'
p203
(I586
I65
tp204
sS'window_size'
p205
(I1134
I935
tp206
ssS'reccard_window_30'
p207
(dp208
g64
(I0
I0
tp209
sg66
(I700
I600
tp210
ssS'reccard_window_36'
p211
(dp212
g203
(I0
I0
tp213
sg205
(I700
I600
tp214
ssS'reccard_window_37'
p215
(dp216
g203
(I0
I0
tp217
sg205
(I700
I600
tp218
ssS'reccard_window_34'
p219
(dp220
g203
(I0
I0
tp221
sg205
(I700
I600
tp222
ssS'reccard_window_35'
p223
(dp224
g203
(I0
I0
tp225
sg205
(I700
I600
tp226
ssS'reccard_window_11'
p227
(dp228
g21
(I0
I0
tp229
sg23
(I700
I600
tp230
ssS'reccard_window_38'
p231
(dp232
g203
(I0
I0
tp233
sg205
(I700
I600
tp234
ssS'reccard_window_13'
p235
(dp236
S'position'
p237
(I0
I0
tp238
sS'window_size'
p239
(I700
I600
tp240
ssS'reccard_window_72'
p241
(dp242
g177
(I0
I0
tp243
sg179
(I700
I600
tp244
ssS'reccard_window_15'
p245
(dp246
S'position'
p247
(I993
I52
tp248
sS'window_size'
p249
(I700
I600
tp250
ssS'nutritionDruid'
p251
(dp252
g15
(I0
I0
tp253
sg17
(I717
I650
tp254
ssS'reccard_window_71'
p255
(dp256
g42
(I0
I0
tp257
sg44
(I700
I600
tp258
ssS'reccard_window_41'
p259
(dp260
g203
(I0
I0
tp261
sg205
(I700
I600
tp262
ssS'reccard_window_40'
p263
(dp264
g203
(I0
I0
tp265
sg205
(I700
I600
tp266
ssS'reccard_window_64'
p267
(dp268
g48
(I0
I0
tp269
sg50
(I700
I600
tp270
ssS'reccard_window_194'
p271
(dp272
g247
(I0
I0
tp273
sg249
(I1299
I600
tp274
ssS'reccard_window_20'
p275
(dp276
g247
(I0
I0
tp277
sg249
(I700
I600
tp278
ssS'reccard_window_16'
p279
(dp280
g247
(I0
I0
tp281
sg249
(I1368
I745
tp282
ssS'reccard_window_39'
p283
(dp284
g203
(I0
I0
tp285
sg205
(I700
I600
tp286
ssS'reccard_window_186'
p287
(dp288
g116
(I0
I0
tp289
sg118
(I700
I600
tp290
ssS'readableUnits'
p291
I01
sS'useFractions'
p292
I01
sS'reccard_window_84'
p293
(dp294
g177
(I0
I0
tp295
sg179
(I700
I600
tp296
ssS'sautTog'
p297
(dp298
g142
I01
ssS'reccard_window_118'
p299
(dp300
S'position'
p301
(I0
I0
tp302
sS'window_size'
p303
(I1214
I785
tp304
ssS'reccard_window_69'
p305
(dp306
g42
(I0
I0
tp307
sg44
(I700
I600
tp308
ssS'app_window'
p309
(dp310
g101
(I125
I52
tp311
sS'window_size'
p312
(I928
I965
tp313
ssS'reccard_window_110'
p314
(dp315
S'position'
p316
(I0
I0
tp317
sS'window_size'
p318
(I1327
I855
tp319
ss.